target datalayout = "e-m:e-p270:32:32-p271:32:32-p272:64:64-i64:64-i128:128-f80:128-n8:16:32:64-S128"
target triple = "x86_64-pc-linux-gnu"

%struct.H5L_trav_cr_t = type { ptr, ptr, ptr, ptr, ptr }

@.str = private unnamed_addr constant [100 x i8] c"generated/home/dtcxzyw/WorkSpace/Projects/compilers/llvm-opt-benchmark/bench/hdf5/hdf5/src/H5Lint.c\00", align 1
@H5E_LINK_g = external global i64, align 8
@H5E_BADVALUE_g = external global i64, align 8
@.str.6 = private unnamed_addr constant [21 x i8] c"can't normalize name\00", align 1
@H5E_ARGS_g = external global i64, align 8
@H5E_BADTYPE_g = external global i64, align 8
@H5E_CANTGET_g = external global i64, align 8
@.str.15 = private unnamed_addr constant [20 x i8] c"not a property list\00", align 1
@__func__.H5L__create_real = private unnamed_addr constant [17 x i8] c"H5L__create_real\00", align 1
@.str.31 = private unnamed_addr constant [47 x i8] c"can't get 'create intermediate group' property\00", align 1
@H5E_CANTINSERT_g = external global i64, align 8
@.str.32 = private unnamed_addr constant [18 x i8] c"can't insert link\00", align 1

; Function Attrs: nounwind uwtable
define internal i32 @H5L__create_real(ptr noundef %0, ptr noundef %1, ptr noundef %2, ptr noundef %3, ptr noundef %4, ptr noundef %5, i64 noundef %6) #0 {
  %8 = alloca ptr, align 8
  %9 = alloca ptr, align 8
  %10 = alloca ptr, align 8
  %11 = alloca ptr, align 8
  %12 = alloca ptr, align 8
  %13 = alloca ptr, align 8
  %14 = alloca i64, align 8
  %15 = alloca ptr, align 8
  %16 = alloca i32, align 4
  %17 = alloca ptr, align 8
  %18 = alloca %struct.H5L_trav_cr_t, align 8
  %19 = alloca i32, align 4
  %20 = alloca i8, align 1
  %21 = alloca i32, align 4
  store ptr %0, ptr %8, align 8
  store ptr %1, ptr %9, align 8
  store ptr %2, ptr %10, align 8
  store ptr %3, ptr %11, align 8
  store ptr %4, ptr %12, align 8
  store ptr %5, ptr %13, align 8
  store i64 %6, ptr %14, align 8
  store ptr null, ptr %15, align 8
  store i32 0, ptr %16, align 4
  store ptr null, ptr %17, align 8
  store i32 0, ptr %19, align 4
  store i8 0, ptr %20, align 1
  %22 = load ptr, ptr %9, align 8
  %23 = call ptr @H5G_normalize(ptr noundef %22)
  store ptr %23, ptr %15, align 8
  %24 = icmp eq ptr %23, null
  br i1 %24, label %25, label %40

25:                                               ; preds = %7
  br label %26

26:                                               ; preds = %25
  br label %27

27:                                               ; preds = %26
  br label %28

28:                                               ; preds = %27
  %29 = load i64, ptr @H5E_LINK_g, align 8
  %30 = load i64, ptr @H5E_BADVALUE_g, align 8
  %31 = call i32 (ptr, ptr, i32, i64, i64, ptr, ...) @H5E_printf_stack(ptr noundef @.str, ptr noundef @__func__.H5L__create_real, i32 noundef 691, i64 noundef %29, i64 noundef %30, ptr noundef @.str.6)
  br label %32

32:                                               ; preds = %28
  store i8 1, ptr %20, align 1
  %33 = load i8, ptr %20, align 1
  %34 = trunc i8 %33 to i1
  %35 = zext i1 %34 to i8
  store i8 %35, ptr %20, align 1
  br label %36

36:                                               ; preds = %32
  br label %37

37:                                               ; preds = %36
  store i32 -1, ptr %19, align 4
  br label %125

38:                                               ; No predecessors!
  br label %39

39:                                               ; preds = %38
  br label %40

40:                                               ; preds = %39, %7
  %41 = load i64, ptr %14, align 8
  %42 = icmp ne i64 %41, 0
  br i1 %42, label %43, label %87

43:                                               ; preds = %40
  %44 = load i64, ptr %14, align 8
  %45 = call ptr @H5I_object(i64 noundef %44)
  store ptr %45, ptr %17, align 8
  %46 = icmp eq ptr null, %45
  br i1 %46, label %47, label %62

47:                                               ; preds = %43
  br label %48

48:                                               ; preds = %47
  br label %49

49:                                               ; preds = %48
  br label %50

50:                                               ; preds = %49
  %51 = load i64, ptr @H5E_ARGS_g, align 8
  %52 = load i64, ptr @H5E_BADTYPE_g, align 8
  %53 = call i32 (ptr, ptr, i32, i64, i64, ptr, ...) @H5E_printf_stack(ptr noundef @.str, ptr noundef @__func__.H5L__create_real, i32 noundef 699, i64 noundef %51, i64 noundef %52, ptr noundef @.str.15)
  br label %54

54:                                               ; preds = %50
  store i8 1, ptr %20, align 1
  %55 = load i8, ptr %20, align 1
  %56 = trunc i8 %55 to i1
  %57 = zext i1 %56 to i8
  store i8 %57, ptr %20, align 1
  br label %58

58:                                               ; preds = %54
  br label %59

59:                                               ; preds = %58
  store i32 -1, ptr %19, align 4
  br label %125

60:                                               ; No predecessors!
  br label %61

61:                                               ; preds = %60
  br label %62

62:                                               ; preds = %61, %43
  %63 = call i32 @H5CX_get_intermediate_group(ptr noundef %21)
  %64 = icmp slt i32 %63, 0
  br i1 %64, label %65, label %80

65:                                               ; preds = %62
  br label %66

66:                                               ; preds = %65
  br label %67

67:                                               ; preds = %66
  br label %68

68:                                               ; preds = %67
  %69 = load i64, ptr @H5E_LINK_g, align 8
  %70 = load i64, ptr @H5E_CANTGET_g, align 8
  %71 = call i32 (ptr, ptr, i32, i64, i64, ptr, ...) @H5E_printf_stack(ptr noundef @.str, ptr noundef @__func__.H5L__create_real, i32 noundef 703, i64 noundef %69, i64 noundef %70, ptr noundef @.str.31)
  br label %72

72:                                               ; preds = %68
  store i8 1, ptr %20, align 1
  %73 = load i8, ptr %20, align 1
  %74 = trunc i8 %73 to i1
  %75 = zext i1 %74 to i8
  store i8 %75, ptr %20, align 1
  br label %76

76:                                               ; preds = %72
  br label %77

77:                                               ; preds = %76
  store i32 -1, ptr %19, align 4
  br label %125

78:                                               ; No predecessors!
  br label %79

79:                                               ; preds = %78
  br label %80

80:                                               ; preds = %79, %62
  %81 = load i32, ptr %21, align 4
  %82 = icmp ugt i32 %81, 0
  br i1 %82, label %83, label %86

83:                                               ; preds = %80
  %84 = load i32, ptr %16, align 4
  %85 = or i32 %84, 16
  store i32 %85, ptr %16, align 4
  br label %86

86:                                               ; preds = %83, %80
  br label %87

87:                                               ; preds = %86, %40
  %88 = load ptr, ptr %13, align 8
  %89 = icmp ne ptr %88, null
  br i1 %89, label %90, label %93

90:                                               ; preds = %87
  %91 = load i32, ptr %16, align 4
  %92 = or i32 %91, 32
  store i32 %92, ptr %16, align 4
  br label %93

93:                                               ; preds = %90, %87
  %94 = load ptr, ptr %11, align 8
  %95 = getelementptr inbounds %struct.H5L_trav_cr_t, ptr %18, i32 0, i32 0
  store ptr %94, ptr %95, align 8
  %96 = load ptr, ptr %17, align 8
  %97 = getelementptr inbounds %struct.H5L_trav_cr_t, ptr %18, i32 0, i32 1
  store ptr %96, ptr %97, align 8
  %98 = load ptr, ptr %10, align 8
  %99 = getelementptr inbounds %struct.H5L_trav_cr_t, ptr %18, i32 0, i32 2
  store ptr %98, ptr %99, align 8
  %100 = load ptr, ptr %13, align 8
  %101 = getelementptr inbounds %struct.H5L_trav_cr_t, ptr %18, i32 0, i32 3
  store ptr %100, ptr %101, align 8
  %102 = load ptr, ptr %12, align 8
  %103 = getelementptr inbounds %struct.H5L_trav_cr_t, ptr %18, i32 0, i32 4
  store ptr %102, ptr %103, align 8
  %104 = load ptr, ptr %8, align 8
  %105 = load ptr, ptr %9, align 8
  %106 = load i32, ptr %16, align 4
  %107 = call i32 @H5G_traverse(ptr noundef %104, ptr noundef %105, i32 noundef %106, ptr noundef @H5L__link_cb, ptr noundef %18)
  %108 = icmp slt i32 %107, 0
  br i1 %108, label %109, label %124

109:                                              ; preds = %93
  br label %110

110:                                              ; preds = %109
  br label %111

111:                                              ; preds = %110
  br label %112

112:                                              ; preds = %111
  %113 = load i64, ptr @H5E_LINK_g, align 8
  %114 = load i64, ptr @H5E_CANTINSERT_g, align 8
  %115 = call i32 (ptr, ptr, i32, i64, i64, ptr, ...) @H5E_printf_stack(ptr noundef @.str, ptr noundef @__func__.H5L__create_real, i32 noundef 732, i64 noundef %113, i64 noundef %114, ptr noundef @.str.32)
  br label %116

116:                                              ; preds = %112
  store i8 1, ptr %20, align 1
  %117 = load i8, ptr %20, align 1
  %118 = trunc i8 %117 to i1
  %119 = zext i1 %118 to i8
  store i8 %119, ptr %20, align 1
  br label %120

120:                                              ; preds = %116
  br label %121

121:                                              ; preds = %120
  store i32 -1, ptr %19, align 4
  br label %125

122:                                              ; No predecessors!
  br label %123

123:                                              ; preds = %122
  br label %124

124:                                              ; preds = %123, %93
  br label %125

125:                                              ; preds = %124, %121, %77, %59, %37
  %126 = load ptr, ptr %15, align 8
  %127 = icmp ne ptr %126, null
  br i1 %127, label %128, label %131

128:                                              ; preds = %125
  %129 = load ptr, ptr %15, align 8
  %130 = call ptr @H5MM_xfree(ptr noundef %129)
  br label %131

131:                                              ; preds = %128, %125
  %132 = load i32, ptr %19, align 4
  ret i32 %132
}