; Function Attrs: nounwind uwtable
define internal fastcc range(i32 -1, 1) i32 @H5L__create_real(ptr noundef %0, ptr noundef %1, ptr noundef %2, ptr noundef %3, ptr noundef %4, ptr noundef %5, i64 noundef %6) unnamed_addr #0 {
  %8 = alloca %struct.H5L_trav_cr_t, align 8
  %9 = alloca i32, align 4
  %10 = tail call ptr @H5G_normalize(ptr noundef %1) #10
  %11 = icmp eq ptr %10, null
  br i1 %11, label %41, label %12

12:                                               ; preds = %7
  %.not = icmp eq i64 %6, 0
  br i1 %.not, label %29, label %13

13:                                               ; preds = %12
  %14 = tail call ptr @H5I_object(i64 noundef %6) #10
  %15 = icmp eq ptr %14, null
  br i1 %15, label %16, label %20

16:                                               ; preds = %13
  %17 = load i64, ptr @H5E_ARGS_g, align 8
  %18 = load i64, ptr @H5E_BADTYPE_g, align 8
  %19 = tail call i32 (ptr, ptr, i32, i64, i64, ptr, ...) @H5E_printf_stack(ptr noundef nonnull @.str, ptr noundef nonnull @__func__.H5L__create_real, i32 noundef 699, i64 noundef %17, i64 noundef %18, ptr noundef nonnull @.str.15) #10
  br label %45

20:                                               ; preds = %13
  %21 = call i32 @H5CX_get_intermediate_group(ptr noundef nonnull %9) #10
  %22 = icmp slt i32 %21, 0
  br i1 %22, label %23, label %27

23:                                               ; preds = %20
  %24 = load i64, ptr @H5E_LINK_g, align 8
  %25 = load i64, ptr @H5E_CANTGET_g, align 8
  %26 = call i32 (ptr, ptr, i32, i64, i64, ptr, ...) @H5E_printf_stack(ptr noundef nonnull @.str, ptr noundef nonnull @__func__.H5L__create_real, i32 noundef 703, i64 noundef %24, i64 noundef %25, ptr noundef nonnull @.str.31) #10
  br label %45

27:                                               ; preds = %20
  %28 = load i32, ptr %9, align 4
  %.not25 = icmp eq i32 %28, 0
  %spec.select = select i1 %.not25, i32 0, i32 16
  br label %29

29:                                               ; preds = %27, %12
  %.021 = phi i32 [ 0, %12 ], [ %spec.select, %27 ]
  %.020 = phi ptr [ null, %12 ], [ %14, %27 ]
  %.not26 = icmp eq ptr %5, null
  %30 = or disjoint i32 %.021, 32
  %spec.select28 = select i1 %.not26, i32 %.021, i32 %30
  store ptr %3, ptr %8, align 8
  %31 = getelementptr inbounds i8, ptr %8, i64 8
  store ptr %.020, ptr %31, align 8
  %32 = getelementptr inbounds i8, ptr %8, i64 16
  store ptr %2, ptr %32, align 8
  %33 = getelementptr inbounds i8, ptr %8, i64 24
  store ptr %5, ptr %33, align 8
  %34 = getelementptr inbounds i8, ptr %8, i64 32
  store ptr %4, ptr %34, align 8
  %35 = call i32 @H5G_traverse(ptr noundef %0, ptr noundef %1, i32 noundef %spec.select28, ptr noundef nonnull @H5L__link_cb, ptr noundef nonnull %8) #10
  %36 = icmp slt i32 %35, 0
  br i1 %36, label %37, label %45

37:                                               ; preds = %29
  %38 = load i64, ptr @H5E_LINK_g, align 8
  %39 = load i64, ptr @H5E_CANTINSERT_g, align 8
  %40 = call i32 (ptr, ptr, i32, i64, i64, ptr, ...) @H5E_printf_stack(ptr noundef nonnull @.str, ptr noundef nonnull @__func__.H5L__create_real, i32 noundef 732, i64 noundef %38, i64 noundef %39, ptr noundef nonnull @.str.32) #10
  br label %45

41:                                               ; preds = %7
  %42 = load i64, ptr @H5E_LINK_g, align 8
  %43 = load i64, ptr @H5E_BADVALUE_g, align 8
  %44 = tail call i32 (ptr, ptr, i32, i64, i64, ptr, ...) @H5E_printf_stack(ptr noundef nonnull @.str, ptr noundef nonnull @__func__.H5L__create_real, i32 noundef 691, i64 noundef %42, i64 noundef %43, ptr noundef nonnull @.str.6) #10
  br label %47

45:                                               ; preds = %29, %37, %23, %16
  %.0.ph = phi i32 [ 0, %29 ], [ -1, %37 ], [ -1, %23 ], [ -1, %16 ]
  %46 = call ptr @H5MM_xfree(ptr noundef nonnull %10) #10
  br label %47

47:                                               ; preds = %41, %45
  %.031 = phi i32 [ %.0.ph, %45 ], [ -1, %41 ]
  ret i32 %.031
}